; ModuleID = '2/273.c'
source_filename = "2/273.c"
target datalayout = "e-m:e-p270:32:32-p271:32:32-p272:64:64-i64:64-f80:128-n8:16:32:64-S128"
target triple = "x86_64-pc-linux-gnu"

%struct.book = type { i32, [20 x i8] }

@.str = private unnamed_addr constant [3 x i8] c"%d\00", align 1
@.str.1 = private unnamed_addr constant [6 x i8] c"%d %s\00", align 1
@.str.2 = private unnamed_addr constant [7 x i8] c"%c\0A%d\0A\00", align 1
@.str.3 = private unnamed_addr constant [4 x i8] c"%d\0A\00", align 1

; Function Attrs: noinline nounwind uwtable
define dso_local i32 @main() #0 {
  %1 = alloca i32, align 4
  %2 = alloca i32, align 4
  %3 = alloca i32, align 4
  %4 = alloca i32, align 4
  %5 = alloca i32, align 4
  %6 = alloca [26 x i32], align 16
  %7 = alloca i32, align 4
  %8 = alloca i32, align 4
  %9 = alloca i32, align 4
  %10 = alloca i32, align 4
  %11 = alloca [1000 x %struct.book], align 16
  store i32 0, i32* %1, align 4
  %12 = bitcast [26 x i32]* %6 to i8*
  call void @llvm.memset.p0i8.i64(i8* align 16 %12, i8 0, i64 104, i1 false)
  store i32 0, i32* %7, align 4
  store i32 0, i32* %10, align 4
  %13 = call i32 (i8*, ...) @__isoc99_scanf(i8* getelementptr inbounds ([3 x i8], [3 x i8]* @.str, i64 0, i64 0), i32* %2)
  store i32 0, i32* %3, align 4
  br label %14

14:                                               ; preds = %30, %0
  %15 = load i32, i32* %3, align 4
  %16 = load i32, i32* %2, align 4
  %17 = sub nsw i32 %16, 1
  %18 = icmp sle i32 %15, %17
  br i1 %18, label %19, label %33

19:                                               ; preds = %14
  %20 = load i32, i32* %3, align 4
  %21 = sext i32 %20 to i64
  %22 = getelementptr inbounds [1000 x %struct.book], [1000 x %struct.book]* %11, i64 0, i64 %21
  %23 = getelementptr inbounds %struct.book, %struct.book* %22, i32 0, i32 0
  %24 = load i32, i32* %3, align 4
  %25 = sext i32 %24 to i64
  %26 = getelementptr inbounds [1000 x %struct.book], [1000 x %struct.book]* %11, i64 0, i64 %25
  %27 = getelementptr inbounds %struct.book, %struct.book* %26, i32 0, i32 1
  %28 = getelementptr inbounds [20 x i8], [20 x i8]* %27, i64 0, i64 0
  %29 = call i32 (i8*, ...) @__isoc99_scanf(i8* getelementptr inbounds ([6 x i8], [6 x i8]* @.str.1, i64 0, i64 0), i32* %23, i8* %28)
  br label %30

30:                                               ; preds = %19
  %31 = load i32, i32* %3, align 4
  %32 = add nsw i32 %31, 1
  store i32 %32, i32* %3, align 4
  br label %14

33:                                               ; preds = %14
  store i32 0, i32* %3, align 4
  br label %34

34:                                               ; preds = %72, %33
  %35 = load i32, i32* %3, align 4
  %36 = load i32, i32* %2, align 4
  %37 = sub nsw i32 %36, 1
  %38 = icmp sle i32 %35, %37
  br i1 %38, label %39, label %75

39:                                               ; preds = %34
  %40 = load i32, i32* %3, align 4
  %41 = sext i32 %40 to i64
  %42 = getelementptr inbounds [1000 x %struct.book], [1000 x %struct.book]* %11, i64 0, i64 %41
  %43 = getelementptr inbounds %struct.book, %struct.book* %42, i32 0, i32 1
  %44 = getelementptr inbounds [20 x i8], [20 x i8]* %43, i64 0, i64 0
  %45 = call i64 @strlen(i8* %44) #4
  %46 = trunc i64 %45 to i32
  store i32 %46, i32* %4, align 4
  store i32 0, i32* %5, align 4
  br label %47

47:                                               ; preds = %68, %39
  %48 = load i32, i32* %5, align 4
  %49 = load i32, i32* %4, align 4
  %50 = sub nsw i32 %49, 1
  %51 = icmp sle i32 %48, %50
  br i1 %51, label %52, label %71

52:                                               ; preds = %47
  %53 = load i32, i32* %3, align 4
  %54 = sext i32 %53 to i64
  %55 = getelementptr inbounds [1000 x %struct.book], [1000 x %struct.book]* %11, i64 0, i64 %54
  %56 = getelementptr inbounds %struct.book, %struct.book* %55, i32 0, i32 1
  %57 = load i32, i32* %5, align 4
  %58 = sext i32 %57 to i64
  %59 = getelementptr inbounds [20 x i8], [20 x i8]* %56, i64 0, i64 %58
  %60 = load i8, i8* %59, align 1
  %61 = sext i8 %60 to i32
  %62 = sub nsw i32 %61, 65
  store i32 %62, i32* %8, align 4
  %63 = load i32, i32* %8, align 4
  %64 = sext i32 %63 to i64
  %65 = getelementptr inbounds [26 x i32], [26 x i32]* %6, i64 0, i64 %64
  %66 = load i32, i32* %65, align 4
  %67 = add nsw i32 %66, 1
  store i32 %67, i32* %65, align 4
  br label %68

68:                                               ; preds = %52
  %69 = load i32, i32* %5, align 4
  %70 = add nsw i32 %69, 1
  store i32 %70, i32* %5, align 4
  br label %47

71:                                               ; preds = %47
  br label %72

72:                                               ; preds = %71
  %73 = load i32, i32* %3, align 4
  %74 = add nsw i32 %73, 1
  store i32 %74, i32* %3, align 4
  br label %34

75:                                               ; preds = %34
  store i32 0, i32* %3, align 4
  br label %76

76:                                               ; preds = %93, %75
  %77 = load i32, i32* %3, align 4
  %78 = icmp sle i32 %77, 25
  br i1 %78, label %79, label %96

79:                                               ; preds = %76
  %80 = load i32, i32* %10, align 4
  %81 = load i32, i32* %3, align 4
  %82 = sext i32 %81 to i64
  %83 = getelementptr inbounds [26 x i32], [26 x i32]* %6, i64 0, i64 %82
  %84 = load i32, i32* %83, align 4
  %85 = icmp slt i32 %80, %84
  br i1 %85, label %86, label %92

86:                                               ; preds = %79
  %87 = load i32, i32* %3, align 4
  %88 = sext i32 %87 to i64
  %89 = getelementptr inbounds [26 x i32], [26 x i32]* %6, i64 0, i64 %88
  %90 = load i32, i32* %89, align 4
  store i32 %90, i32* %10, align 4
  %91 = load i32, i32* %3, align 4
  store i32 %91, i32* %7, align 4
  br label %92

92:                                               ; preds = %86, %79
  br label %93

93:                                               ; preds = %92
  %94 = load i32, i32* %3, align 4
  %95 = add nsw i32 %94, 1
  store i32 %95, i32* %3, align 4
  br label %76

96:                                               ; preds = %76
  %97 = load i32, i32* %7, align 4
  %98 = add nsw i32 %97, 65
  store i32 %98, i32* %9, align 4
  %99 = load i32, i32* %9, align 4
  %100 = load i32, i32* %10, align 4
  %101 = call i32 (i8*, ...) @printf(i8* getelementptr inbounds ([7 x i8], [7 x i8]* @.str.2, i64 0, i64 0), i32 %99, i32 %100)
  store i32 0, i32* %3, align 4
  br label %102

102:                                              ; preds = %144, %96
  %103 = load i32, i32* %3, align 4
  %104 = load i32, i32* %2, align 4
  %105 = sub nsw i32 %104, 1
  %106 = icmp sle i32 %103, %105
  br i1 %106, label %107, label %147

107:                                              ; preds = %102
  %108 = load i32, i32* %3, align 4
  %109 = sext i32 %108 to i64
  %110 = getelementptr inbounds [1000 x %struct.book], [1000 x %struct.book]* %11, i64 0, i64 %109
  %111 = getelementptr inbounds %struct.book, %struct.book* %110, i32 0, i32 1
  %112 = getelementptr inbounds [20 x i8], [20 x i8]* %111, i64 0, i64 0
  %113 = call i64 @strlen(i8* %112) #4
  %114 = trunc i64 %113 to i32
  store i32 %114, i32* %4, align 4
  store i32 0, i32* %5, align 4
  br label %115

115:                                              ; preds = %140, %107
  %116 = load i32, i32* %5, align 4
  %117 = load i32, i32* %4, align 4
  %118 = sub nsw i32 %117, 1
  %119 = icmp sle i32 %116, %118
  br i1 %119, label %120, label %143

120:                                              ; preds = %115
  %121 = load i32, i32* %3, align 4
  %122 = sext i32 %121 to i64
  %123 = getelementptr inbounds [1000 x %struct.book], [1000 x %struct.book]* %11, i64 0, i64 %122
  %124 = getelementptr inbounds %struct.book, %struct.book* %123, i32 0, i32 1
  %125 = load i32, i32* %5, align 4
  %126 = sext i32 %125 to i64
  %127 = getelementptr inbounds [20 x i8], [20 x i8]* %124, i64 0, i64 %126
  %128 = load i8, i8* %127, align 1
  %129 = sext i8 %128 to i32
  %130 = load i32, i32* %9, align 4
  %131 = icmp eq i32 %129, %130
  br i1 %131, label %132, label %139

132:                                              ; preds = %120
  %133 = load i32, i32* %3, align 4
  %134 = sext i32 %133 to i64
  %135 = getelementptr inbounds [1000 x %struct.book], [1000 x %struct.book]* %11, i64 0, i64 %134
  %136 = getelementptr inbounds %struct.book, %struct.book* %135, i32 0, i32 0
  %137 = load i32, i32* %136, align 8
  %138 = call i32 (i8*, ...) @printf(i8* getelementptr inbounds ([4 x i8], [4 x i8]* @.str.3, i64 0, i64 0), i32 %137)
  br label %143

139:                                              ; preds = %120
  br label %140

140:                                              ; preds = %139
  %141 = load i32, i32* %5, align 4
  %142 = add nsw i32 %141, 1
  store i32 %142, i32* %5, align 4
  br label %115

143:                                              ; preds = %132, %115
  br label %144

144:                                              ; preds = %143
  %145 = load i32, i32* %3, align 4
  %146 = add nsw i32 %145, 1
  store i32 %146, i32* %3, align 4
  br label %102

147:                                              ; preds = %102
  %148 = load i32, i32* %1, align 4
  ret i32 %148
}

; Function Attrs: argmemonly nounwind willreturn
declare void @llvm.memset.p0i8.i64(i8* nocapture writeonly, i8, i64, i1 immarg) #1

declare dso_local i32 @__isoc99_scanf(i8*, ...) #2

; Function Attrs: nounwind readonly
declare dso_local i64 @strlen(i8*) #3

declare dso_local i32 @printf(i8*, ...) #2


!llvm.module.flags = !{!0}
!llvm.ident = !{!1}

!0 = !{i32 1, !"wchar_size", i32 4}
!1 = !{!"clang version 10.0.0-4ubuntu1 "}
