; ModuleID = 'source-C-CXX/1/273.c'
source_filename = "source-C-CXX/1/273.c"
target datalayout = "e-m:e-p270:32:32-p271:32:32-p272:64:64-i64:64-f80:128-n8:16:32:64-S128"
target triple = "x86_64-pc-linux-gnu"

%struct.book = type { i32, [20 x i8] }

@.str = private unnamed_addr constant [3 x i8] c"%d\00", align 1
@.str.1 = private unnamed_addr constant [6 x i8] c"%d %s\00", align 1
@.str.2 = private unnamed_addr constant [7 x i8] c"%c\0A%d\0A\00", align 1
@.str.3 = private unnamed_addr constant [4 x i8] c"%d\0A\00", align 1

; Function Attrs: nofree nounwind sspstrong uwtable
define dso_local i32 @main() local_unnamed_addr #0 {
  %1 = alloca i32, align 4
  %2 = alloca [26 x i32], align 16
  %3 = alloca [1000 x %struct.book], align 16
  %4 = bitcast i32* %1 to i8*
  call void @llvm.lifetime.start.p0i8(i64 4, i8* nonnull %4) #5
  %5 = bitcast [26 x i32]* %2 to i8*
  call void @llvm.lifetime.start.p0i8(i64 104, i8* nonnull %5) #5
  call void @llvm.memset.p0i8.i64(i8* noundef nonnull align 16 dereferenceable(104) %5, i8 0, i64 104, i1 false)
  %6 = bitcast [1000 x %struct.book]* %3 to i8*
  call void @llvm.lifetime.start.p0i8(i64 24000, i8* nonnull %6) #5
  %7 = call i32 (i8*, ...) @__isoc99_scanf(i8* getelementptr inbounds ([3 x i8], [3 x i8]* @.str, i64 0, i64 0), i32* nonnull %1)
  %8 = load i32, i32* %1, align 4, !tbaa !5
  %9 = icmp sgt i32 %8, 0
  br i1 %9, label %14, label %23

10:                                               ; preds = %14
  %11 = icmp sgt i32 %20, 0
  br i1 %11, label %12, label %23

12:                                               ; preds = %10
  %13 = zext i32 %20 to i64
  br label %156

14:                                               ; preds = %0, %14
  %15 = phi i64 [ %19, %14 ], [ 0, %0 ]
  %16 = getelementptr inbounds [1000 x %struct.book], [1000 x %struct.book]* %3, i64 0, i64 %15, i32 0
  %17 = getelementptr inbounds [1000 x %struct.book], [1000 x %struct.book]* %3, i64 0, i64 %15, i32 1, i64 0
  %18 = call i32 (i8*, ...) @__isoc99_scanf(i8* getelementptr inbounds ([6 x i8], [6 x i8]* @.str.1, i64 0, i64 0), i32* nonnull %16, i8* nonnull %17)
  %19 = add nuw nsw i64 %15, 1
  %20 = load i32, i32* %1, align 4, !tbaa !5
  %21 = sext i32 %20 to i64
  %22 = icmp slt i64 %19, %21
  br i1 %22, label %14, label %10, !llvm.loop !9

23:                                               ; preds = %201, %0, %10
  %24 = getelementptr inbounds [26 x i32], [26 x i32]* %2, i64 0, i64 0
  %25 = load i32, i32* %24, align 16, !tbaa !5
  %26 = icmp sgt i32 %25, 0
  %27 = select i1 %26, i32 %25, i32 0
  %28 = getelementptr inbounds [26 x i32], [26 x i32]* %2, i64 0, i64 1
  %29 = load i32, i32* %28, align 4, !tbaa !5
  %30 = icmp slt i32 %27, %29
  %31 = select i1 %30, i32 %29, i32 %27
  %32 = getelementptr inbounds [26 x i32], [26 x i32]* %2, i64 0, i64 2
  %33 = load i32, i32* %32, align 8, !tbaa !5
  %34 = icmp slt i32 %31, %33
  %35 = select i1 %34, i32 %33, i32 %31
  %36 = getelementptr inbounds [26 x i32], [26 x i32]* %2, i64 0, i64 3
  %37 = load i32, i32* %36, align 4, !tbaa !5
  %38 = icmp slt i32 %35, %37
  %39 = select i1 %38, i32 %37, i32 %35
  %40 = getelementptr inbounds [26 x i32], [26 x i32]* %2, i64 0, i64 4
  %41 = load i32, i32* %40, align 16, !tbaa !5
  %42 = icmp slt i32 %39, %41
  %43 = select i1 %42, i32 %41, i32 %39
  %44 = getelementptr inbounds [26 x i32], [26 x i32]* %2, i64 0, i64 5
  %45 = load i32, i32* %44, align 4, !tbaa !5
  %46 = icmp slt i32 %43, %45
  %47 = select i1 %46, i32 %45, i32 %43
  %48 = getelementptr inbounds [26 x i32], [26 x i32]* %2, i64 0, i64 6
  %49 = load i32, i32* %48, align 8, !tbaa !5
  %50 = icmp slt i32 %47, %49
  %51 = select i1 %50, i32 %49, i32 %47
  %52 = getelementptr inbounds [26 x i32], [26 x i32]* %2, i64 0, i64 7
  %53 = load i32, i32* %52, align 4, !tbaa !5
  %54 = icmp slt i32 %51, %53
  %55 = select i1 %54, i32 %53, i32 %51
  %56 = getelementptr inbounds [26 x i32], [26 x i32]* %2, i64 0, i64 8
  %57 = load i32, i32* %56, align 16, !tbaa !5
  %58 = icmp slt i32 %55, %57
  %59 = select i1 %58, i32 %57, i32 %55
  %60 = getelementptr inbounds [26 x i32], [26 x i32]* %2, i64 0, i64 9
  %61 = load i32, i32* %60, align 4, !tbaa !5
  %62 = icmp slt i32 %59, %61
  %63 = select i1 %62, i32 %61, i32 %59
  %64 = getelementptr inbounds [26 x i32], [26 x i32]* %2, i64 0, i64 10
  %65 = load i32, i32* %64, align 8, !tbaa !5
  %66 = icmp slt i32 %63, %65
  %67 = select i1 %66, i32 %65, i32 %63
  %68 = getelementptr inbounds [26 x i32], [26 x i32]* %2, i64 0, i64 11
  %69 = load i32, i32* %68, align 4, !tbaa !5
  %70 = icmp slt i32 %67, %69
  %71 = select i1 %70, i32 %69, i32 %67
  %72 = getelementptr inbounds [26 x i32], [26 x i32]* %2, i64 0, i64 12
  %73 = load i32, i32* %72, align 16, !tbaa !5
  %74 = icmp slt i32 %71, %73
  %75 = select i1 %74, i32 %73, i32 %71
  %76 = getelementptr inbounds [26 x i32], [26 x i32]* %2, i64 0, i64 13
  %77 = load i32, i32* %76, align 4, !tbaa !5
  %78 = icmp slt i32 %75, %77
  %79 = select i1 %78, i32 %77, i32 %75
  %80 = getelementptr inbounds [26 x i32], [26 x i32]* %2, i64 0, i64 14
  %81 = load i32, i32* %80, align 8, !tbaa !5
  %82 = icmp slt i32 %79, %81
  %83 = select i1 %82, i32 %81, i32 %79
  %84 = getelementptr inbounds [26 x i32], [26 x i32]* %2, i64 0, i64 15
  %85 = load i32, i32* %84, align 4, !tbaa !5
  %86 = icmp slt i32 %83, %85
  %87 = select i1 %86, i32 %85, i32 %83
  %88 = getelementptr inbounds [26 x i32], [26 x i32]* %2, i64 0, i64 16
  %89 = load i32, i32* %88, align 16, !tbaa !5
  %90 = icmp slt i32 %87, %89
  %91 = select i1 %90, i32 %89, i32 %87
  %92 = getelementptr inbounds [26 x i32], [26 x i32]* %2, i64 0, i64 17
  %93 = load i32, i32* %92, align 4, !tbaa !5
  %94 = icmp slt i32 %91, %93
  %95 = select i1 %94, i32 %93, i32 %91
  %96 = getelementptr inbounds [26 x i32], [26 x i32]* %2, i64 0, i64 18
  %97 = load i32, i32* %96, align 8, !tbaa !5
  %98 = icmp slt i32 %95, %97
  %99 = select i1 %98, i32 %97, i32 %95
  %100 = getelementptr inbounds [26 x i32], [26 x i32]* %2, i64 0, i64 19
  %101 = load i32, i32* %100, align 4, !tbaa !5
  %102 = icmp slt i32 %99, %101
  %103 = select i1 %102, i32 %101, i32 %99
  %104 = getelementptr inbounds [26 x i32], [26 x i32]* %2, i64 0, i64 20
  %105 = load i32, i32* %104, align 16, !tbaa !5
  %106 = icmp slt i32 %103, %105
  %107 = select i1 %106, i32 %105, i32 %103
  %108 = getelementptr inbounds [26 x i32], [26 x i32]* %2, i64 0, i64 21
  %109 = load i32, i32* %108, align 4, !tbaa !5
  %110 = icmp slt i32 %107, %109
  %111 = select i1 %110, i32 %109, i32 %107
  %112 = getelementptr inbounds [26 x i32], [26 x i32]* %2, i64 0, i64 22
  %113 = load i32, i32* %112, align 8, !tbaa !5
  %114 = icmp slt i32 %111, %113
  %115 = select i1 %114, i32 %113, i32 %111
  %116 = getelementptr inbounds [26 x i32], [26 x i32]* %2, i64 0, i64 23
  %117 = load i32, i32* %116, align 4, !tbaa !5
  %118 = icmp slt i32 %115, %117
  %119 = select i1 %118, i32 %117, i32 %115
  %120 = getelementptr inbounds [26 x i32], [26 x i32]* %2, i64 0, i64 24
  %121 = load i32, i32* %120, align 16, !tbaa !5
  %122 = icmp slt i32 %119, %121
  %123 = select i1 %122, i32 %121, i32 %119
  %124 = getelementptr inbounds [26 x i32], [26 x i32]* %2, i64 0, i64 25
  %125 = load i32, i32* %124, align 4, !tbaa !5
  %126 = icmp slt i32 %123, %125
  %127 = select i1 %126, i32 %125, i32 %123
  %128 = select i1 %30, i32 66, i32 65
  %129 = select i1 %34, i32 67, i32 %128
  %130 = select i1 %38, i32 68, i32 %129
  %131 = select i1 %42, i32 69, i32 %130
  %132 = select i1 %46, i32 70, i32 %131
  %133 = select i1 %50, i32 71, i32 %132
  %134 = select i1 %54, i32 72, i32 %133
  %135 = select i1 %58, i32 73, i32 %134
  %136 = select i1 %62, i32 74, i32 %135
  %137 = select i1 %66, i32 75, i32 %136
  %138 = select i1 %70, i32 76, i32 %137
  %139 = select i1 %74, i32 77, i32 %138
  %140 = select i1 %78, i32 78, i32 %139
  %141 = select i1 %82, i32 79, i32 %140
  %142 = select i1 %86, i32 80, i32 %141
  %143 = select i1 %90, i32 81, i32 %142
  %144 = select i1 %94, i32 82, i32 %143
  %145 = select i1 %98, i32 83, i32 %144
  %146 = select i1 %102, i32 84, i32 %145
  %147 = select i1 %106, i32 85, i32 %146
  %148 = select i1 %110, i32 86, i32 %147
  %149 = select i1 %114, i32 87, i32 %148
  %150 = select i1 %118, i32 88, i32 %149
  %151 = select i1 %122, i32 89, i32 %150
  %152 = select i1 %126, i32 90, i32 %151
  %153 = call i32 (i8*, ...) @printf(i8* nonnull dereferenceable(1) getelementptr inbounds ([7 x i8], [7 x i8]* @.str.2, i64 0, i64 0), i32 %152, i32 %127)
  %154 = load i32, i32* %1, align 4, !tbaa !5
  %155 = icmp sgt i32 %154, 0
  br i1 %155, label %204, label %232

156:                                              ; preds = %12, %201
  %157 = phi i64 [ 0, %12 ], [ %202, %201 ]
  %158 = getelementptr inbounds [1000 x %struct.book], [1000 x %struct.book]* %3, i64 0, i64 %157, i32 1, i64 0
  %159 = call i64 @strlen(i8* noundef nonnull %158) #6
  %160 = trunc i64 %159 to i32
  %161 = icmp sgt i32 %160, 0
  br i1 %161, label %162, label %201

162:                                              ; preds = %156
  %163 = shl i64 %159, 32
  %164 = and i64 %159, 1
  %165 = icmp eq i64 %163, 4294967296
  br i1 %165, label %190, label %166

166:                                              ; preds = %162
  %167 = ashr exact i64 %163, 32
  %168 = sub nsw i64 %167, %164
  br label %169

169:                                              ; preds = %169, %166
  %170 = phi i64 [ 0, %166 ], [ %187, %169 ]
  %171 = phi i64 [ %168, %166 ], [ %188, %169 ]
  %172 = getelementptr inbounds [1000 x %struct.book], [1000 x %struct.book]* %3, i64 0, i64 %157, i32 1, i64 %170
  %173 = load i8, i8* %172, align 2, !tbaa !11
  %174 = sext i8 %173 to i64
  %175 = add nsw i64 %174, -65
  %176 = getelementptr inbounds [26 x i32], [26 x i32]* %2, i64 0, i64 %175
  %177 = load i32, i32* %176, align 4, !tbaa !5
  %178 = add nsw i32 %177, 1
  store i32 %178, i32* %176, align 4, !tbaa !5
  %179 = or i64 %170, 1
  %180 = getelementptr inbounds [1000 x %struct.book], [1000 x %struct.book]* %3, i64 0, i64 %157, i32 1, i64 %179
  %181 = load i8, i8* %180, align 1, !tbaa !11
  %182 = sext i8 %181 to i64
  %183 = add nsw i64 %182, -65
  %184 = getelementptr inbounds [26 x i32], [26 x i32]* %2, i64 0, i64 %183
  %185 = load i32, i32* %184, align 4, !tbaa !5
  %186 = add nsw i32 %185, 1
  store i32 %186, i32* %184, align 4, !tbaa !5
  %187 = add nuw nsw i64 %170, 2
  %188 = add i64 %171, -2
  %189 = icmp eq i64 %188, 0
  br i1 %189, label %190, label %169, !llvm.loop !12

190:                                              ; preds = %169, %162
  %191 = phi i64 [ 0, %162 ], [ %187, %169 ]
  %192 = icmp eq i64 %164, 0
  br i1 %192, label %201, label %193

193:                                              ; preds = %190
  %194 = getelementptr inbounds [1000 x %struct.book], [1000 x %struct.book]* %3, i64 0, i64 %157, i32 1, i64 %191
  %195 = load i8, i8* %194, align 1, !tbaa !11
  %196 = sext i8 %195 to i64
  %197 = add nsw i64 %196, -65
  %198 = getelementptr inbounds [26 x i32], [26 x i32]* %2, i64 0, i64 %197
  %199 = load i32, i32* %198, align 4, !tbaa !5
  %200 = add nsw i32 %199, 1
  store i32 %200, i32* %198, align 4, !tbaa !5
  br label %201

201:                                              ; preds = %193, %190, %156
  %202 = add nuw nsw i64 %157, 1
  %203 = icmp eq i64 %202, %13
  br i1 %203, label %23, label %156, !llvm.loop !13

204:                                              ; preds = %23, %227
  %205 = phi i32 [ %228, %227 ], [ %154, %23 ]
  %206 = phi i64 [ %229, %227 ], [ 0, %23 ]
  %207 = getelementptr inbounds [1000 x %struct.book], [1000 x %struct.book]* %3, i64 0, i64 %206, i32 1, i64 0
  %208 = call i64 @strlen(i8* noundef nonnull %207) #6
  %209 = trunc i64 %208 to i32
  %210 = icmp sgt i32 %209, 0
  br i1 %210, label %211, label %227

211:                                              ; preds = %204
  %212 = and i64 %208, 4294967295
  br label %215

213:                                              ; preds = %215
  %214 = icmp eq i64 %221, %212
  br i1 %214, label %227, label %215, !llvm.loop !14

215:                                              ; preds = %211, %213
  %216 = phi i64 [ 0, %211 ], [ %221, %213 ]
  %217 = getelementptr inbounds [1000 x %struct.book], [1000 x %struct.book]* %3, i64 0, i64 %206, i32 1, i64 %216
  %218 = load i8, i8* %217, align 1, !tbaa !11
  %219 = sext i8 %218 to i32
  %220 = icmp eq i32 %152, %219
  %221 = add nuw nsw i64 %216, 1
  br i1 %220, label %222, label %213

222:                                              ; preds = %215
  %223 = getelementptr inbounds [1000 x %struct.book], [1000 x %struct.book]* %3, i64 0, i64 %206, i32 0
  %224 = load i32, i32* %223, align 8, !tbaa !15
  %225 = call i32 (i8*, ...) @printf(i8* nonnull dereferenceable(1) getelementptr inbounds ([4 x i8], [4 x i8]* @.str.3, i64 0, i64 0), i32 %224)
  %226 = load i32, i32* %1, align 4, !tbaa !5
  br label %227

227:                                              ; preds = %213, %204, %222
  %228 = phi i32 [ %205, %204 ], [ %226, %222 ], [ %205, %213 ]
  %229 = add nuw nsw i64 %206, 1
  %230 = sext i32 %228 to i64
  %231 = icmp slt i64 %229, %230
  br i1 %231, label %204, label %232, !llvm.loop !17

232:                                              ; preds = %227, %23
  call void @llvm.lifetime.end.p0i8(i64 24000, i8* nonnull %6) #5
  call void @llvm.lifetime.end.p0i8(i64 104, i8* nonnull %5) #5
  call void @llvm.lifetime.end.p0i8(i64 4, i8* nonnull %4) #5
  ret i32 0
}

; Function Attrs: argmemonly mustprogress nofree nosync nounwind willreturn
declare void @llvm.lifetime.start.p0i8(i64 immarg, i8* nocapture) #1

; Function Attrs: argmemonly mustprogress nofree nounwind willreturn writeonly
declare void @llvm.memset.p0i8.i64(i8* nocapture writeonly, i8, i64, i1 immarg) #2

; Function Attrs: nofree nounwind
declare noundef i32 @__isoc99_scanf(i8* nocapture noundef readonly, ...) local_unnamed_addr #3

; Function Attrs: argmemonly mustprogress nofree nounwind readonly willreturn
declare i64 @strlen(i8* nocapture) local_unnamed_addr #4

; Function Attrs: nofree nounwind
declare noundef i32 @printf(i8* nocapture noundef readonly, ...) local_unnamed_addr #3

; Function Attrs: argmemonly mustprogress nofree nosync nounwind willreturn
declare void @llvm.lifetime.end.p0i8(i64 immarg, i8* nocapture) #1


!llvm.module.flags = !{!0, !1, !2, !3}
!llvm.ident = !{!4}

!0 = !{i32 1, !"wchar_size", i32 4}
!1 = !{i32 7, !"PIC Level", i32 2}
!2 = !{i32 7, !"PIE Level", i32 2}
!3 = !{i32 7, !"uwtable", i32 1}
!4 = !{!"clang version 13.0.0"}
!5 = !{!6, !6, i64 0}
!6 = !{!"int", !7, i64 0}
!7 = !{!"omnipotent char", !8, i64 0}
!8 = !{!"Simple C/C++ TBAA"}
!9 = distinct !{!9, !10}
!10 = !{!"llvm.loop.mustprogress"}
!11 = !{!7, !7, i64 0}
!12 = distinct !{!12, !10}
!13 = distinct !{!13, !10}
!14 = distinct !{!14, !10}
!15 = !{!16, !6, i64 0}
!16 = !{!"book", !6, i64 0, !7, i64 4}
!17 = distinct !{!17, !10}
